(dp0
S'repr_solution'
p1
(lp2
(I42
F0.196531295776
tp3
a(I56
F0.26220703125
tp4
a(I70
F0.259700775146
tp5
a(I84
F0.349437713623
tp6
a(I18
F0.245174407959
tp7
a(I24
F0.196531295776
tp8
a(I30
F0.206560134888
tp9
a(I36
F0.318857192993
tp10
a(I42
F0.196031570435
tp11
a(I56
F0.247667312622
tp12
a(I70
F0.287275314331
tp13
a(I84
F0.287273406982
tp14
a(I18
F0.25218963623
tp15
a(I24
F0.216081619263
tp16
a(I30
F0.176471710205
tp17
a(I36
F0.241670608521
tp18
a(I42
F0.17696762085
tp19
a(I56
F0.188516616821
tp20
a(I70
F0.220598220825
tp21
a(I84
F0.195026397705
tp22
a(I18
F0.198535919189
tp23
a(I24
F0.157428741455
tp24
a(I30
F0.185995101929
tp25
a(I36
F0.252687454224
tp26
a(I42
F0.177471160889
tp27
a(I56
F0.188966751099
tp28
a(I70
F0.216606140137
tp29
a(I84
F0.248683929443
tp30
a(I18
F0.168952941895
tp31
a(I24
F0.154420852661
tp32
a(I30
F0.158432006836
tp33
a(I36
F0.265207290649
tp34
a(I42
F0.209064483643
tp35
a(I56
F0.303308486938
tp36
a(I70
F0.252681732178
tp37
a(I84
F0.236640930176
tp38
a(I18
F0.19402885437
tp39
a(I24
F0.161931991577
tp40
a(I30
F0.186508178711
tp41
a(I36
F0.255685806274
tp42
a(I42
F0.171955108643
tp43
a(I56
F0.193544387817
tp44
a(I70
F0.226602554321
tp45
a(I84
F0.202547073364
tp46
a(I18
F0.170957565308
tp47
a(I24
F0.161939620972
tp48
a(I30
F0.227642059326
tp49
a(I36
F0.251678466797
tp50
a(I42
F0.17848777771
tp51
a(I56
F0.182992935181
tp52
a(I70
F0.247175216675
tp53
a(I84
F0.259702682495
tp54
a(I18
F0.198543548584
tp55
a(I24
F0.180500030518
tp56
a(I30
F0.228628158569
tp57
a(I36
F0.255180358887
tp58
a(I42
F0.170471191406
tp59
a(I56
F0.204042434692
tp60
a(I70
F0.216588973999
tp61
a(I84
F0.238645553589
tp62
a(I18
F0.171964645386
tp63
a(I24
F0.141887664795
tp64
a(I30
F0.177473068237
tp65
a(I36
F0.254688262939
tp66
a(I42
F0.172466278076
tp67
a(I56
F0.208065032959
tp68
a(I70
F0.235134124756
tp69
a(I84
F0.268222808838
tp70
a(I18
F0.179491043091
tp71
a(I24
F0.167947769165
tp72
a(I30
F0.164440155029
tp73
a(I36
F0.233633041382
tp74
a(I42
F0.171468734741
tp75
a(I56
F0.203563690186
tp76
a(I70
F0.242162704468
tp77
a(I84
F0.312376022339
tp78
a(I18
F0.227628707886
tp79
a(I24
F0.170463562012
tp80
a(I30
F0.157419204712
tp81
a(I36
F0.301809310913
tp82
a(I42
F0.166959762573
tp83
a(I56
F0.192012786865
tp84
a(I70
F0.228610992432
tp85
a(I84
F0.20756149292
tp86
a(I18
F0.155920028687
tp87
a(I24
F0.154415130615
tp88
a(I30
F0.161401748657
tp89
a(I36
F0.205049514771
tp90
a(I42
F0.144388198853
tp91
a(I56
F0.184970855713
tp92
a(I70
F0.281274795532
tp93
a(I84
F0.259700775146
tp94
a(I18
F0.160440444946
tp95
a(I24
F0.134860992432
tp96
a(I30
F0.138368606567
tp97
a(I36
F0.20806312561
tp98
a(I42
F0.135862350464
tp99
a(I56
F0.170463562012
tp100
a(I70
F0.223043441772
tp101
a(I84
F0.224597930908
tp102
a(I18
F0.178983688354
tp103
a(I24
F0.146474838257
tp104
a(I30
F0.150400161743
tp105
a(I36
F0.247156143188
tp106
a(I42
F0.135364532471
tp107
a(I56
F0.153411865234
tp108
a(I70
F0.201541900635
tp109
a(I84
F0.226108551025
tp110
a(I18
F0.142883300781
tp111
a(I24
F0.145391464233
tp112
a(I30
F0.171461105347
tp113
a(I36
F0.235134124756
tp114
a(I42
F0.129348754883
tp115
a(I56
F0.175966262817
tp116
a(I70
F0.283866882324
tp117
a(I84
F0.249662399292
tp118
a(I18
F0.163352966309
tp119
a(I24
F0.139377593994
tp120
a(I30
F0.159429550171
tp121
a(I36
F0.219051361084
tp122
a(I42
F0.125339508057
tp123
a(I56
F0.180498123169
tp124
a(I70
F0.213073730469
tp125
a(I84
F0.240661621094
tp126
a(I18
F0.171463012695
tp127
a(I24
F0.152908325195
tp128
a(I30
F0.191303253174
tp129
a(I36
F0.285266876221
tp130
a(I42
F0.157423019409
tp131
a(I56
F0.165445327759
tp132
a(I70
F0.194526672363
tp133
a(I84
F0.20756149292
tp134
a(I18
F0.168947219849
tp135
a(I24
F0.155878067017
tp136
a(I30
F0.157920837402
tp137
a(I36
F0.239135742188
tp138
a(I42
F0.149396896362
tp139
a(I56
F0.15541267395
tp140
a(I70
F0.202520370483
tp141
a(I84
F0.197023391724
tp142
a(I18
F0.161428451538
tp143
a(I24
F0.138368606567
tp144
a(I30
F0.15140914917
tp145
a(I36
F0.20955657959
tp146
a(I42
F0.136865615845
tp147
a(I56
F0.182985305786
tp148
a(I70
F0.186002731323
tp149
a(I84
F0.213575363159
tp150
a(I18
F0.161939620972
tp151
a(I24
F0.161937713623
tp152
a(I30
F0.148923873901
tp153
a(I36
F0.195016860962
tp154
a(I42
F0.142383575439
tp155
a(I56
F0.167030334473
tp156
a(I70
F0.208061218262
tp157
a(I84
F0.187498092651
tp158
a(I18
F0.152410507202
tp159
a(I24
F0.146898269653
tp160
a(I30
F0.142385482788
tp161
a(I36
F0.214073181152
tp162
a(I42
F0.153907775879
tp163
a(I56
F0.149906158447
tp164
a(I70
F0.247686386108
tp165
a(I84
F0.198030471802
tp166
a(I18
F0.15291595459
tp167
a(I24
F0.138868331909
tp168
a(I30
F0.157930374146
tp169
a(I36
F0.238636016846
tp170
asS'full_solution'
p171
(lp172
(I365
F0.433700561523
tp173
a(I365
F0.30309677124
tp174
a(I365
F0.304712295532
tp175
a(I365
F0.308422088623
tp176
a(I365
F0.414068222046
tp177
a(I365
F0.326372146606
tp178
a(I365
F0.334888458252
tp179
a(I365
F0.373046875
tp180
a(I365
F0.316886901855
tp181
a(I365
F0.329683303833
tp182
a(I365
F0.328546524048
tp183
a(I365
F0.352571487427
tp184
a(I365
F0.309627532959
tp185
a(I365
F0.318866729736
tp186
a(I365
F0.320755004883
tp187
a(I365
F0.323907852173
tp188
a(I365
F0.303665161133
tp189
a(I365
F0.324886322021
tp190
a(I365
F0.332365036011
tp191
a(I365
F0.317556381226
tp192
a(I365
F0.362529754639
tp193
asS'repr_solution_and_comm'
p194
F2.197949886021661
sS'repr_compilation'
p195
(lp196
(I42
F2.0913212036077744
tp197
a(I56
F2.3600207717265294
tp198
a(I70
F2.8012423651323815
tp199
a(I84
F2.9072955948696446
tp200
a(I18
F1.6787781586170745
tp201
a(I24
F2.010686717800997
tp202
a(I30
F1.9453702862931763
tp203
a(I36
F2.08768578679296
tp204
a(I42
F1.9345985998776882
tp205
a(I56
F2.196425191699049
tp206
a(I70
F2.511926056154408
tp207
a(I84
F2.7655726866383077
tp208
a(I18
F1.5318138173554132
tp209
a(I24
F2.788675397647637
tp210
a(I30
F1.2082412991956346
tp211
a(I36
F1.2466449249121752
tp212
a(I42
F1.2010331891784318
tp213
a(I56
F1.398294209480099
tp214
a(I70
F1.561439784055736
tp215
a(I84
F2.2825020448991893
tp216
a(I18
F0.993799114503048
tp217
a(I24
F1.6331365197657703
tp218
a(I30
F1.174649158026682
tp219
a(I36
F1.2535051376837885
tp220
a(I42
F1.2053990443401403
tp221
a(I56
F1.3782332290006138
tp222
a(I70
F1.5777238549202934
tp223
a(I84
F1.7154886114706187
tp224
a(I18
F0.984482470026677
tp225
a(I24
F1.6501699919298005
tp226
a(I30
F1.1665530712872112
tp227
a(I36
F1.2448726181893335
tp228
a(I42
F1.2162764856835224
tp229
a(I56
F1.623363670410754
tp230
a(I70
F2.2719994865415742
tp231
a(I84
F2.3032785121667416
tp232
a(I18
F0.9674577499946224
tp233
a(I24
F1.731184101460542
tp234
a(I30
F1.21671190424874
tp235
a(I36
F1.3671894971498944
tp236
a(I42
F1.217760336723643
tp237
a(I56
F1.5257412964605805
tp238
a(I70
F1.6785527912189764
tp239
a(I84
F1.8223948094022262
tp240
a(I18
F1.2525329216913974
tp241
a(I24
F1.6662181199034762
tp242
a(I30
F1.1707570120075275
tp243
a(I36
F1.3614980586677348
tp244
a(I42
F1.790999818028581
tp245
a(I56
F1.6175347505223385
tp246
a(I70
F1.8961162049734526
tp247
a(I84
F1.9119032276768735
tp248
a(I18
F1.3257404941818436
tp249
a(I24
F2.0149191029502163
tp250
a(I30
F1.4292935315545492
tp251
a(I36
F1.6628350562269816
tp252
a(I42
F1.2294316693706833
tp253
a(I56
F1.4651229364569645
tp254
a(I70
F1.777633489157779
tp255
a(I84
F1.7841315824693424
tp256
a(I18
F1.0022832124262777
tp257
a(I24
F1.6499697869111287
tp258
a(I30
F1.2116433258247525
tp259
a(I36
F1.3704099170407176
tp260
a(I42
F1.21100916092945
tp261
a(I56
F1.432639398670176
tp262
a(I70
F1.6093927150899958
tp263
a(I84
F1.7904911003581674
tp264
a(I18
F1.007948394512539
tp265
a(I24
F1.6678197600529643
tp266
a(I30
F1.2372356537058522
tp267
a(I36
F1.3038280731196892
tp268
a(I42
F1.3163910292105925
tp269
a(I56
F1.4484997204788215
tp270
a(I70
F1.6343213396304463
tp271
a(I84
F2.9607415827282466
tp272
a(I18
F1.2070050605556162
tp273
a(I24
F2.0714688156068064
tp274
a(I30
F1.283293018825475
tp275
a(I36
F1.4610944030480937
tp276
a(I42
F1.2721479081127995
tp277
a(I56
F1.6763665815886384
tp278
a(I70
F1.6983231279828033
tp279
a(I84
F1.892185039032654
tp280
a(I18
F1.0935949345578138
tp281
a(I24
F1.791785321872453
tp282
a(I30
F1.3534103593880218
tp283
a(I36
F1.2489182911899661
tp284
a(I42
F1.2387030944986464
tp285
a(I56
F1.416437014370672
tp286
a(I70
F1.57571268792924
tp287
a(I84
F3.2089177660620862
tp288
a(I18
F1.0049504246425158
tp289
a(I24
F1.638050112519636
tp290
a(I30
F1.1774596864038358
tp291
a(I36
F1.279589772987947
tp292
a(I42
F1.2582608273900178
tp293
a(I56
F1.4377732534117058
tp294
a(I70
F1.5993934043203808
tp295
a(I84
F1.7619653495802368
tp296
a(I18
F0.9961851644799253
tp297
a(I24
F1.7114309042885907
tp298
a(I30
F1.2026731199053984
tp299
a(I36
F1.2756392794224212
tp300
a(I42
F1.2337067211632302
tp301
a(I56
F1.395316661251286
tp302
a(I70
F1.5834112820085693
tp303
a(I84
F2.3473520607076352
tp304
a(I18
F1.0223879535656124
tp305
a(I24
F1.6958962347234774
tp306
a(I30
F1.2393441881649778
tp307
a(I36
F1.2808708663043262
tp308
a(I42
F1.2502639314795942
tp309
a(I56
F1.3986205910679246
tp310
a(I70
F1.9828491033987348
tp311
a(I84
F2.097521724432454
tp312
a(I18
F1.1495152230571648
tp313
a(I24
F1.6779354012433032
tp314
a(I30
F1.1617846180552078
tp315
a(I36
F1.2520628592704952
tp316
a(I42
F1.3959759885259473
tp317
a(I56
F1.4569962172555506
tp318
a(I70
F1.646799327106919
tp319
a(I84
F1.8373813767030924
tp320
a(I18
F1.1290465390970894
tp321
a(I24
F1.7251721161451314
tp322
a(I30
F1.1626952044516656
tp323
a(I36
F1.4225988799458946
tp324
a(I42
F1.287352914040639
tp325
a(I56
F1.4319436041789686
tp326
a(I70
F1.5976827271935008
tp327
a(I84
F1.9026894207511305
tp328
a(I18
F0.9959127543725117
tp329
a(I24
F1.6582697253909373
tp330
a(I30
F1.1825340995824263
tp331
a(I36
F1.265447057077381
tp332
a(I42
F1.2066119439616614
tp333
a(I56
F1.3848232196978643
tp334
a(I70
F1.575867308927286
tp335
a(I84
F1.7716955322919148
tp336
a(I18
F0.9830879636670034
tp337
a(I24
F1.6629532100084816
tp338
a(I30
F1.1808267045050798
tp339
a(I36
F1.337201046317432
tp340
a(I42
F1.2523447508541494
tp341
a(I56
F1.4296520042928478
tp342
a(I70
F1.603138952129143
tp343
a(I84
F2.359578424390179
tp344
a(I18
F1.015127330756627
tp345
a(I24
F1.689523588636689
tp346
a(I30
F1.1794650186402578
tp347
a(I36
F1.250711748898425
tp348
a(I42
F1.3439452933405391
tp349
a(I56
F1.6422347256152534
tp350
a(I70
F1.861365500335637
tp351
a(I84
F1.7767644753880631
tp352
a(I18
F0.9962424180098424
tp353
a(I24
F1.7229771543828747
tp354
a(I30
F1.1702183912195778
tp355
a(I36
F1.3273122312137957
tp356
a(I42
F1.4512245508971091
tp357
a(I56
F1.4170055382761575
tp358
a(I70
F1.6625378484123985
tp359
a(I84
F2.7100013894008725
tp360
a(I18
F0.9919611667904746
tp361
a(I24
F1.8052446421453396
tp362
a(I30
F1.2417674347026377
tp363
a(I36
F1.3685489949817793
tp364
asS'full_solution_and_comm'
p365
F8.326780539196989
sS'full_compilation'
p366
(lp367
(I365
F8.162852378154824
tp368
a(I365
F5.209048318697214
tp369
a(I365
F5.675408223138504
tp370
a(I365
F5.682020458837826
tp371
a(I365
F6.957594461942648
tp372
a(I365
F5.933290520821117
tp373
a(I365
F5.587035393986355
tp374
a(I365
F6.242298762047369
tp375
a(I365
F6.298841181260684
tp376
a(I365
F6.605447691606969
tp377
a(I365
F5.755569729147055
tp378
a(I365
F6.709915326769988
tp379
a(I365
F5.934818132521059
tp380
a(I365
F5.722295582106085
tp381
a(I365
F5.712081844103409
tp382
a(I365
F5.8156137304904405
tp383
a(I365
F5.675284234602373
tp384
a(I365
F5.7832625686996835
tp385
a(I365
F5.691049376975798
tp386
a(I365
F5.806173462150127
tp387
a(I365
F6.105718460689559
tp388
as.