(dp0
S'repr_solution'
p1
(lp2
(I42
F0.146747589111
tp3
a(I56
F0.200191497803
tp4
a(I70
F0.234172821045
tp5
a(I84
F0.253149032593
tp6
a(I18
F0.186742782593
tp7
a(I24
F0.168087005615
tp8
a(I30
F0.16845703125
tp9
a(I36
F0.261205673218
tp10
a(I42
F0.170127868652
tp11
a(I56
F0.200031280518
tp12
a(I70
F0.228616714478
tp13
a(I84
F0.24623298645
tp14
a(I18
F0.178983688354
tp15
a(I24
F0.16791343689
tp16
a(I30
F0.172391891479
tp17
a(I36
F0.259786605835
tp18
a(I42
F0.160278320312
tp19
a(I56
F0.205230712891
tp20
a(I70
F0.237062454224
tp21
a(I84
F0.239267349243
tp22
a(I18
F0.180486679077
tp23
a(I24
F0.157953262329
tp24
a(I30
F0.18150138855
tp25
a(I36
F0.263004302979
tp26
a(I42
F0.165294647217
tp27
a(I56
F0.185255050659
tp28
a(I70
F0.237621307373
tp29
a(I84
F0.251455307007
tp30
a(I18
F0.189517974854
tp31
a(I24
F0.164241790771
tp32
a(I30
F0.168432235718
tp33
a(I36
F0.249643325806
tp34
a(I42
F0.177476882935
tp35
a(I56
F0.206895828247
tp36
a(I70
F0.225614547729
tp37
a(I84
F0.243556976318
tp38
a(I18
F0.193534851074
tp39
a(I24
F0.172481536865
tp40
a(I30
F0.162158966064
tp41
a(I36
F0.243671417236
tp42
a(I42
F0.184532165527
tp43
a(I56
F0.195796966553
tp44
a(I70
F0.232629776001
tp45
a(I84
F0.239652633667
tp46
a(I18
F0.170116424561
tp47
a(I24
F0.169458389282
tp48
a(I30
F0.171003341675
tp49
a(I36
F0.2532787323
tp50
a(I42
F0.16145324707
tp51
a(I56
F0.190519332886
tp52
a(I70
F0.22310256958
tp53
a(I84
F0.245168685913
tp54
a(I18
F0.174476623535
tp55
a(I24
F0.160501480103
tp56
a(I30
F0.167194366455
tp57
a(I36
F0.246341705322
tp58
a(I42
F0.158430099487
tp59
a(I56
F0.190137863159
tp60
a(I70
F0.246318817139
tp61
a(I84
F0.232633590698
tp62
a(I18
F0.180152893066
tp63
a(I24
F0.174982070923
tp64
a(I30
F0.174983978271
tp65
a(I36
F0.269649505615
tp66
a(I42
F0.169458389282
tp67
a(I56
F0.198547363281
tp68
a(I70
F0.233736038208
tp69
a(I84
F0.233150482178
tp70
a(I18
F0.192007064819
tp71
a(I24
F0.16400718689
tp72
a(I30
F0.169454574585
tp73
a(I36
F0.234313964844
tp74
a(I42
F0.164493560791
tp75
a(I56
F0.189485549927
tp76
a(I70
F0.230226516724
tp77
a(I84
F0.24165725708
tp78
a(I18
F0.177494049072
tp79
a(I24
F0.164957046509
tp80
a(I30
F0.173475265503
tp81
a(I36
F0.25341796875
tp82
a(I42
F0.162874221802
tp83
a(I56
F0.188100814819
tp84
a(I70
F0.239643096924
tp85
a(I84
F0.252689361572
tp86
a(I18
F0.176183700562
tp87
a(I24
F0.163082122803
tp88
a(I30
F0.166130065918
tp89
a(I36
F0.250686645508
tp90
a(I42
F0.16796875
tp91
a(I56
F0.196662902832
tp92
a(I70
F0.250637054443
tp93
a(I84
F0.258735656738
tp94
a(I18
F0.188009262085
tp95
a(I24
F0.162725448608
tp96
a(I30
F0.176223754883
tp97
a(I36
F0.251443862915
tp98
a(I42
F0.16540145874
tp99
a(I56
F0.188371658325
tp100
a(I70
F0.242670059204
tp101
a(I84
F0.255689620972
tp102
a(I18
F0.181612014771
tp103
a(I24
F0.169216156006
tp104
a(I30
F0.181859970093
tp105
a(I36
F0.253576278687
tp106
a(I42
F0.15990447998
tp107
a(I56
F0.184503555298
tp108
a(I70
F0.241649627686
tp109
a(I84
F0.255632400513
tp110
a(I18
F0.174028396606
tp111
a(I24
F0.165458679199
tp112
a(I30
F0.168907165527
tp113
a(I36
F0.242652893066
tp114
a(I42
F0.163768768311
tp115
a(I56
F0.193321228027
tp116
a(I70
F0.231538772583
tp117
a(I84
F0.243339538574
tp118
a(I18
F0.176008224487
tp119
a(I24
F0.162853240967
tp120
a(I30
F0.173118591309
tp121
a(I36
F0.250673294067
tp122
a(I42
F0.171976089478
tp123
a(I56
F0.204210281372
tp124
a(I70
F0.235664367676
tp125
a(I84
F0.296714782715
tp126
a(I18
F0.178453445435
tp127
a(I24
F0.184274673462
tp128
a(I30
F0.181489944458
tp129
a(I36
F0.275096893311
tp130
a(I42
F0.173196792603
tp131
a(I56
F0.192152023315
tp132
a(I70
F0.230630874634
tp133
a(I84
F0.245216369629
tp134
a(I18
F0.172477722168
tp135
a(I24
F0.169229507446
tp136
a(I30
F0.172437667847
tp137
a(I36
F0.268224716187
tp138
a(I42
F0.175470352173
tp139
a(I56
F0.188486099243
tp140
a(I70
F0.240505218506
tp141
a(I84
F0.242435455322
tp142
a(I18
F0.176969528198
tp143
a(I24
F0.153257369995
tp144
a(I30
F0.173196792603
tp145
a(I36
F0.251337051392
tp146
a(I42
F0.169515609741
tp147
a(I56
F0.202306747437
tp148
a(I70
F0.287273406982
tp149
a(I84
F0.59107208252
tp150
a(I18
F0.239154815674
tp151
a(I24
F0.216079711914
tp152
a(I30
F0.199542999268
tp153
a(I36
F0.256711959839
tp154
a(I42
F0.163440704346
tp155
a(I56
F0.207563400269
tp156
a(I70
F0.243654251099
tp157
a(I84
F0.240253448486
tp158
a(I18
F0.18646812439
tp159
a(I24
F0.172473907471
tp160
a(I30
F0.171493530273
tp161
a(I36
F0.260732650757
tp162
a(I42
F0.176610946655
tp163
a(I56
F0.193517684937
tp164
a(I70
F0.253929138184
tp165
a(I84
F0.254379272461
tp166
a(I18
F0.181125640869
tp167
a(I24
F0.301303863525
tp168
a(I30
F0.229621887207
tp169
a(I36
F0.277759552002
tp170
a(I42
F0.171804428101
tp171
a(I56
F0.240167617798
tp172
a(I70
F0.270742416382
tp173
a(I84
F0.28026008606
tp174
a(I18
F0.215616226196
tp175
a(I24
F0.167261123657
tp176
a(I30
F0.244663238525
tp177
a(I36
F0.264818191528
tp178
a(I42
F0.186500549316
tp179
a(I56
F0.202566146851
tp180
a(I70
F0.242664337158
tp181
a(I84
F0.241228103638
tp182
a(I18
F0.174472808838
tp183
a(I24
F0.18218421936
tp184
a(I30
F0.211582183838
tp185
a(I36
F0.266510009766
tp186
a(I42
F0.224349975586
tp187
a(I56
F0.230230331421
tp188
a(I70
F0.288782119751
tp189
a(I84
F0.235496520996
tp190
a(I18
F0.173320770264
tp191
a(I24
F0.175487518311
tp192
a(I30
F0.180490493774
tp193
a(I36
F0.261695861816
tp194
a(I42
F0.16996383667
tp195
a(I56
F0.182102203369
tp196
a(I70
F0.234140396118
tp197
a(I84
F0.232105255127
tp198
a(I18
F0.17343711853
tp199
a(I24
F0.163961410522
tp200
a(I30
F0.172477722168
tp201
a(I36
F0.266393661499
tp202
a(I42
F0.173498153687
tp203
a(I56
F0.202972412109
tp204
a(I70
F0.259698867798
tp205
a(I84
F0.242568969727
tp206
a(I18
F0.19041633606
tp207
a(I24
F0.162443161011
tp208
a(I30
F0.184232711792
tp209
a(I36
F0.273746490479
tp210
a(I42
F0.155391693115
tp211
a(I56
F0.199542999268
tp212
a(I70
F0.282270431519
tp213
a(I84
F0.259731292725
tp214
a(I18
F0.176494598389
tp215
a(I24
F0.170993804932
tp216
a(I30
F0.184495925903
tp217
a(I36
F0.249664306641
tp218
a(I42
F0.189357757568
tp219
a(I56
F0.188512802124
tp220
a(I70
F0.235570907593
tp221
a(I84
F0.255714416504
tp222
a(I18
F0.17036819458
tp223
a(I24
F0.155258178711
tp224
a(I30
F0.166452407837
tp225
a(I36
F0.251691818237
tp226
a(I42
F0.182685852051
tp227
a(I56
F0.20654296875
tp228
a(I70
F0.242353439331
tp229
a(I84
F0.265195846558
tp230
a(I18
F0.224611282349
tp231
a(I24
F0.193468093872
tp232
a(I30
F0.201557159424
tp233
a(I36
F0.279767990112
tp234
a(I42
F0.170467376709
tp235
a(I56
F0.235635757446
tp236
a(I70
F0.240163803101
tp237
a(I84
F0.247669219971
tp238
a(I18
F0.173997879028
tp239
a(I24
F0.184518814087
tp240
a(I30
F0.18772315979
tp241
a(I36
F0.241640090942
tp242
a(I42
F0.162023544312
tp243
a(I56
F0.203397750854
tp244
a(I70
F0.228246688843
tp245
a(I84
F0.22611618042
tp246
a(I18
F0.175472259521
tp247
a(I24
F0.149913787842
tp248
a(I30
F0.186506271362
tp249
a(I36
F0.257404327393
tp250
a(I42
F0.176261901855
tp251
a(I56
F0.198537826538
tp252
a(I70
F0.241662979126
tp253
a(I84
F0.339925765991
tp254
a(I18
F0.171466827393
tp255
a(I24
F0.171504974365
tp256
a(I30
F0.174463272095
tp257
a(I36
F0.258495330811
tp258
a(I42
F0.167097091675
tp259
a(I56
F0.183578491211
tp260
a(I70
F0.241662979126
tp261
a(I84
F0.243350982666
tp262
a(I18
F0.179988861084
tp263
a(I24
F0.155025482178
tp264
a(I30
F0.178483963013
tp265
a(I36
F0.254707336426
tp266
a(I42
F0.166883468628
tp267
a(I56
F0.194524765015
tp268
a(I70
F0.24467086792
tp269
a(I84
F0.309827804565
tp270
a(I18
F0.19953918457
tp271
a(I24
F0.18350982666
tp272
a(I30
F0.184505462646
tp273
a(I36
F0.254720687866
tp274
a(I42
F0.154224395752
tp275
a(I56
F0.187414169312
tp276
a(I70
F0.277750015259
tp277
a(I84
F0.35747718811
tp278
a(I18
F0.188592910767
tp279
a(I24
F0.173475265503
tp280
a(I30
F0.180488586426
tp281
a(I36
F0.263290405273
tp282
a(I42
F0.167446136475
tp283
a(I56
F0.310327529907
tp284
a(I70
F0.237646102905
tp285
a(I84
F0.256536483765
tp286
a(I18
F0.171913146973
tp287
a(I24
F0.15029335022
tp288
a(I30
F0.181468963623
tp289
a(I36
F0.253421783447
tp290
a(I42
F0.173473358154
tp291
a(I56
F0.204151153564
tp292
a(I70
F0.233644485474
tp293
a(I84
F0.238656997681
tp294
a(I18
F0.172035217285
tp295
a(I24
F0.168661117554
tp296
a(I30
F0.176500320435
tp297
a(I36
F0.264717102051
tp298
a(I42
F0.162441253662
tp299
a(I56
F0.210573196411
tp300
a(I70
F0.223237991333
tp301
a(I84
F0.255306243896
tp302
a(I18
F0.185924530029
tp303
a(I24
F0.190517425537
tp304
a(I30
F0.166576385498
tp305
a(I36
F0.242538452148
tp306
a(I42
F0.166347503662
tp307
a(I56
F0.251174926758
tp308
a(I70
F0.244665145874
tp309
a(I84
F0.23966217041
tp310
a(I18
F0.181503295898
tp311
a(I24
F0.188512802124
tp312
a(I30
F0.175487518311
tp313
a(I36
F0.253196716309
tp314
a(I42
F0.157730102539
tp315
a(I56
F0.211597442627
tp316
a(I70
F0.255695343018
tp317
a(I84
F0.341419219971
tp318
a(I18
F0.186006546021
tp319
a(I24
F0.170955657959
tp320
a(I30
F0.186893463135
tp321
a(I36
F0.252456665039
tp322
a(I42
F0.165452957153
tp323
a(I56
F0.190237045288
tp324
a(I70
F0.226581573486
tp325
a(I84
F0.234647750854
tp326
a(I18
F0.186054229736
tp327
a(I24
F0.1579246521
tp328
a(I30
F0.166479110718
tp329
a(I36
F0.245674133301
tp330
a(I42
F0.157764434814
tp331
a(I56
F0.184314727783
tp332
a(I70
F0.253704071045
tp333
a(I84
F0.243688583374
tp334
a(I18
F0.175975799561
tp335
a(I24
F0.179988861084
tp336
a(I30
F0.176481246948
tp337
a(I36
F0.250705718994
tp338
a(I42
F0.1604347229
tp339
a(I56
F0.202342987061
tp340
a(I70
F0.225593566895
tp341
a(I84
F0.235639572144
tp342
a(I18
F0.18550491333
tp343
a(I24
F0.166454315186
tp344
a(I30
F0.169124603271
tp345
a(I36
F0.250553131104
tp346
a(I42
F0.178518295288
tp347
a(I56
F0.190481185913
tp348
a(I70
F0.233028411865
tp349
a(I84
F0.240745544434
tp350
a(I18
F0.174465179443
tp351
a(I24
F0.161460876465
tp352
a(I30
F0.183000564575
tp353
a(I36
F0.238929748535
tp354
a(I42
F0.178455352783
tp355
a(I56
F0.197534561157
tp356
a(I70
F0.230596542358
tp357
a(I84
F0.245365142822
tp358
a(I18
F0.175029754639
tp359
a(I24
F0.172695159912
tp360
a(I30
F0.163442611694
tp361
a(I36
F0.262378692627
tp362
a(I42
F0.187044143677
tp363
a(I56
F0.190496444702
tp364
a(I70
F0.264738082886
tp365
a(I84
F0.257696151733
tp366
a(I18
F0.168962478638
tp367
a(I24
F0.161937713623
tp368
a(I30
F0.178480148315
tp369
a(I36
F0.258796691895
tp370
a(I42
F0.166269302368
tp371
a(I56
F0.200538635254
tp372
a(I70
F0.222103118896
tp373
a(I84
F0.275053024292
tp374
a(I18
F0.223604202271
tp375
a(I24
F0.235643386841
tp376
a(I30
F0.174491882324
tp377
a(I36
F0.260547637939
tp378
a(I42
F0.238132476807
tp379
a(I56
F0.195045471191
tp380
a(I70
F0.274759292603
tp381
a(I84
F0.298738479614
tp382
a(I18
F0.199108123779
tp383
a(I24
F0.191024780273
tp384
a(I30
F0.166418075562
tp385
a(I36
F0.240657806396
tp386
a(I42
F0.160774230957
tp387
a(I56
F0.1921043396
tp388
a(I70
F0.24866104126
tp389
a(I84
F0.246143341064
tp390
a(I18
F0.191017150879
tp391
a(I24
F0.165243148804
tp392
a(I30
F0.174470901489
tp393
a(I36
F0.274751663208
tp394
a(I42
F0.160621643066
tp395
a(I56
F0.184503555298
tp396
a(I70
F0.239656448364
tp397
a(I84
F0.259685516357
tp398
a(I18
F0.181440353394
tp399
a(I24
F0.199562072754
tp400
a(I30
F0.229139328003
tp401
a(I36
F0.305841445923
tp402
a(I42
F0.266220092773
tp403
a(I56
F0.218595504761
tp404
a(I70
F0.267744064331
tp405
a(I84
F0.300842285156
tp406
a(I18
F0.219091415405
tp407
a(I24
F0.198545455933
tp408
a(I30
F0.240139007568
tp409
a(I36
F0.290781021118
tp410
a(I42
F0.221590042114
tp411
a(I56
F0.243146896362
tp412
a(I70
F0.342414855957
tp413
a(I84
F0.310325622559
tp414
a(I18
F0.20955657959
tp415
a(I24
F0.192016601562
tp416
a(I30
F0.206047058105
tp417
a(I36
F0.307817459106
tp418
a(I42
F0.252168655396
tp419
a(I56
F0.242143630981
tp420
a(I70
F0.275232315063
tp421
a(I84
F0.317846298218
tp422
a(I18
F0.221593856812
tp423
a(I24
F0.184492111206
tp424
a(I30
F0.25267791748
tp425
a(I36
F0.323862075806
tp426
a(I42
F0.176969528198
tp427
a(I56
F0.223093032837
tp428
a(I70
F0.260190963745
tp429
a(I84
F0.286769866943
tp430
a(I18
F0.20405960083
tp431
a(I24
F0.19101524353
tp432
a(I30
F0.203556060791
tp433
a(I36
F0.311326980591
tp434
a(I42
F0.193513870239
tp435
a(I56
F0.2331199646
tp436
a(I70
F0.275241851807
tp437
a(I84
F0.291275024414
tp438
a(I18
F0.222099304199
tp439
a(I24
F0.206045150757
tp440
a(I30
F0.208053588867
tp441
a(I36
F0.295793533325
tp442
a(I42
F0.189010620117
tp443
a(I56
F0.225597381592
tp444
a(I70
F0.304309844971
tp445
a(I84
F0.302312850952
tp446
a(I18
F0.228618621826
tp447
a(I24
F0.197528839111
tp448
a(I30
F0.203039169312
tp449
a(I36
F0.328884124756
tp450
a(I42
F0.215591430664
tp451
a(I56
F0.229131698608
tp452
a(I70
F0.283754348755
tp453
a(I84
F0.289270401001
tp454
a(I18
F0.222095489502
tp455
a(I24
F0.198528289795
tp456
a(I30
F0.194528579712
tp457
a(I36
F0.311326980591
tp458
a(I42
F0.196523666382
tp459
a(I56
F0.208555221558
tp460
a(I70
F0.268211364746
tp461
a(I84
F0.285760879517
tp462
a(I18
F0.218580245972
tp463
a(I24
F0.181480407715
tp464
a(I30
F0.206550598145
tp465
a(I36
F0.281749725342
tp466
a(I42
F0.18599319458
tp467
a(I56
F0.234622955322
tp468
a(I70
F0.283252716064
tp469
a(I84
F0.292778015137
tp470
a(I18
F0.207551956177
tp471
a(I24
F0.290271759033
tp472
a(I30
F0.216070175171
tp473
a(I36
F0.288776397705
tp474
a(I42
F0.186996459961
tp475
a(I56
F0.236629486084
tp476
a(I70
F0.293790817261
tp477
a(I84
F0.281749725342
tp478
a(I18
F0.211071014404
tp479
a(I24
F0.208082199097
tp480
a(I30
F0.211090087891
tp481
a(I36
F0.290775299072
tp482
a(I42
F0.183309555054
tp483
a(I56
F0.195314407349
tp484
a(I70
F0.251680374146
tp485
a(I84
F0.228879928589
tp486
a(I18
F0.205101013184
tp487
a(I24
F0.164459228516
tp488
a(I30
F0.222637176514
tp489
a(I36
F0.29340171814
tp490
a(I42
F0.165424346924
tp491
a(I56
F0.182998657227
tp492
a(I70
F0.237154006958
tp493
a(I84
F0.248714447021
tp494
a(I18
F0.187440872192
tp495
a(I24
F0.178400039673
tp496
a(I30
F0.157424926758
tp497
a(I36
F0.23917388916
tp498
a(I42
F0.171463012695
tp499
a(I56
F0.194272994995
tp500
a(I70
F0.235639572144
tp501
a(I84
F0.254428863525
tp502
a(I18
F0.225105285645
tp503
a(I24
F0.171501159668
tp504
a(I30
F0.170463562012
tp505
a(I36
F0.256210327148
tp506
a(I42
F0.158424377441
tp507
a(I56
F0.21756362915
tp508
a(I70
F0.222599029541
tp509
a(I84
F0.272754669189
tp510
a(I18
F0.186471939087
tp511
a(I24
F0.176975250244
tp512
a(I30
F0.16877746582
tp513
a(I36
F0.258712768555
tp514
a(I42
F0.174982070923
tp515
a(I56
F0.192054748535
tp516
a(I70
F0.227655410767
tp517
a(I84
F0.257642745972
tp518
a(I18
F0.208555221558
tp519
a(I24
F0.226613998413
tp520
a(I30
F0.17046546936
tp521
a(I36
F0.367477416992
tp522
a(I42
F0.203550338745
tp523
a(I56
F0.188562393188
tp524
a(I70
F0.304315567017
tp525
a(I84
F0.246435165405
tp526
a(I18
F0.221601486206
tp527
a(I24
F0.170959472656
tp528
a(I30
F0.198535919189
tp529
a(I36
F0.320850372314
tp530
a(I42
F0.193576812744
tp531
a(I56
F0.198038101196
tp532
a(I70
F0.244636535645
tp533
a(I84
F0.270584106445
tp534
a(I18
F0.189510345459
tp535
a(I24
F0.191017150879
tp536
a(I30
F0.178028106689
tp537
a(I36
F0.247680664062
tp538
a(I42
F0.186473846436
tp539
a(I56
F0.194524765015
tp540
a(I70
F0.216358184814
tp541
a(I84
F0.272747039795
tp542
a(I18
F0.212072372437
tp543
a(I24
F0.161111831665
tp544
a(I30
F0.178413391113
tp545
a(I36
F0.249248504639
tp546
a(I42
F0.174461364746
tp547
a(I56
F0.221086502075
tp548
a(I70
F0.221597671509
tp549
a(I84
F0.24401473999
tp550
a(I18
F0.194532394409
tp551
a(I24
F0.166986465454
tp552
a(I30
F0.152408599854
tp553
a(I36
F0.241147994995
tp554
a(I42
F0.176467895508
tp555
a(I56
F0.181509017944
tp556
a(I70
F0.234857559204
tp557
a(I84
F0.241636276245
tp558
a(I18
F0.165447235107
tp559
a(I24
F0.158807754517
tp560
a(I30
F0.165447235107
tp561
a(I36
F0.240146636963
tp562
a(I42
F0.167221069336
tp563
a(I56
F0.182466506958
tp564
a(I70
F0.225608825684
tp565
a(I84
F0.243675231934
tp566
a(I18
F0.175970077515
tp567
a(I24
F0.155410766602
tp568
a(I30
F0.168912887573
tp569
a(I36
F0.244604110718
tp570
a(I42
F0.161436080933
tp571
a(I56
F0.232629776001
tp572
a(I70
F0.330926895142
tp573
a(I84
F0.388038635254
tp574
a(I18
F0.202560424805
tp575
a(I24
F0.20654296875
tp576
a(I30
F0.167766571045
tp577
a(I36
F0.255027770996
tp578
a(I42
F0.165830612183
tp579
a(I56
F0.19393157959
tp580
a(I70
F0.227884292603
tp581
a(I84
F0.240474700928
tp582
a(I18
F0.187162399292
tp583
a(I24
F0.150299072266
tp584
a(I30
F0.1666431427
tp585
a(I36
F0.252611160278
tp586
a(I42
F0.258403778076
tp587
a(I56
F0.204591751099
tp588
a(I70
F0.255731582642
tp589
a(I84
F0.244358062744
tp590
a(I18
F0.199768066406
tp591
a(I24
F0.20362663269
tp592
a(I30
F0.186191558838
tp593
a(I36
F0.33695602417
tp594
a(I42
F0.168594360352
tp595
a(I56
F0.174327850342
tp596
a(I70
F0.214778900146
tp597
a(I84
F0.276344299316
tp598
a(I18
F0.208013534546
tp599
a(I24
F0.174541473389
tp600
a(I30
F0.160974502563
tp601
a(I36
F0.268573760986
tp602
a(I42
F0.161451339722
tp603
a(I56
F0.185216903687
tp604
a(I70
F0.229337692261
tp605
a(I84
F0.240491867065
tp606
a(I18
F0.219442367554
tp607
a(I24
F0.162902832031
tp608
a(I30
F0.167694091797
tp609
a(I36
F0.24289894104
tp610
a(I42
F0.159526824951
tp611
a(I56
F0.184240341187
tp612
a(I70
F0.238552093506
tp613
a(I84
F0.235637664795
tp614
a(I18
F0.173534393311
tp615
a(I24
F0.160669326782
tp616
a(I30
F0.166648864746
tp617
a(I36
F0.337495803833
tp618
a(I42
F0.161315917969
tp619
a(I56
F0.187114715576
tp620
a(I70
F0.222528457642
tp621
a(I84
F0.231332778931
tp622
a(I18
F0.178043365479
tp623
a(I24
F0.175035476685
tp624
a(I30
F0.153221130371
tp625
a(I36
F0.297267913818
tp626
a(I42
F0.145959854126
tp627
a(I56
F0.180477142334
tp628
a(I70
F0.222410202026
tp629
a(I84
F0.22559928894
tp630
a(I18
F0.195676803589
tp631
a(I24
F0.246351242065
tp632
a(I30
F0.17346572876
tp633
a(I36
F0.257587432861
tp634
a(I42
F0.176486968994
tp635
a(I56
F0.197044372559
tp636
a(I70
F0.236642837524
tp637
a(I84
F0.357971191406
tp638
a(I18
F0.221601486206
tp639
a(I24
F0.174861907959
tp640
a(I30
F0.236631393433
tp641
a(I36
F0.367004394531
tp642
a(I42
F0.15526008606
tp643
a(I56
F0.183485031128
tp644
a(I70
F0.243658065796
tp645
a(I84
F0.237356185913
tp646
a(I18
F0.175659179688
tp647
a(I24
F0.152708053589
tp648
a(I30
F0.170276641846
tp649
a(I36
F0.255308151245
tp650
a(I42
F0.176467895508
tp651
a(I56
F0.193021774292
tp652
a(I70
F0.239574432373
tp653
a(I84
F0.239660263062
tp654
a(I18
F0.181463241577
tp655
a(I24
F0.155426025391
tp656
a(I30
F0.167411804199
tp657
a(I36
F0.245668411255
tp658
a(I42
F0.178335189819
tp659
a(I56
F0.187507629395
tp660
a(I70
F0.231519699097
tp661
a(I84
F0.221111297607
tp662
a(I18
F0.174596786499
tp663
a(I24
F0.172069549561
tp664
a(I30
F0.200555801392
tp665
a(I36
F0.245664596558
tp666
a(I42
F0.188009262085
tp667
a(I56
F0.195104598999
tp668
a(I70
F0.22459602356
tp669
a(I84
F0.234628677368
tp670
a(I18
F0.188638687134
tp671
a(I24
F0.156425476074
tp672
a(I30
F0.167427062988
tp673
a(I36
F0.250625610352
tp674
a(I42
F0.154458999634
tp675
a(I56
F0.197519302368
tp676
a(I70
F0.224613189697
tp677
a(I84
F0.238117218018
tp678
a(I18
F0.182497024536
tp679
a(I24
F0.170682907104
tp680
a(I30
F0.162523269653
tp681
a(I36
F0.252691268921
tp682
a(I42
F0.167308807373
tp683
a(I56
F0.189500808716
tp684
a(I70
F0.231246948242
tp685
a(I84
F0.23334312439
tp686
a(I18
F0.19153213501
tp687
a(I24
F0.152170181274
tp688
a(I30
F0.174463272095
tp689
a(I36
F0.243659973145
tp690
a(I42
F0.167453765869
tp691
a(I56
F0.194707870483
tp692
a(I70
F0.228622436523
tp693
a(I84
F0.236663818359
tp694
a(I18
F0.178068161011
tp695
a(I24
F0.16522026062
tp696
a(I30
F0.175973892212
tp697
a(I36
F0.237644195557
tp698
a(I42
F0.165746688843
tp699
a(I56
F0.195533752441
tp700
a(I70
F0.272727966309
tp701
a(I84
F0.240165710449
tp702
a(I18
F0.178476333618
tp703
a(I24
F0.168607711792
tp704
a(I30
F0.160947799683
tp705
a(I36
F0.255373001099
tp706
a(I42
F0.154747009277
tp707
a(I56
F0.184474945068
tp708
a(I70
F0.226142883301
tp709
a(I84
F0.236616134644
tp710
a(I18
F0.173486709595
tp711
a(I24
F0.165451049805
tp712
a(I30
F0.164461135864
tp713
a(I36
F0.262739181519
tp714
a(I42
F0.234149932861
tp715
a(I56
F0.191413879395
tp716
a(I70
F0.246677398682
tp717
a(I84
F0.277784347534
tp718
a(I18
F0.183519363403
tp719
a(I24
F0.153427124023
tp720
a(I30
F0.189130783081
tp721
a(I36
F0.240337371826
tp722
a(I42
F0.165462493896
tp723
a(I56
F0.195510864258
tp724
a(I70
F0.228635787964
tp725
a(I84
F0.250175476074
tp726
a(I18
F0.186008453369
tp727
a(I24
F0.156833648682
tp728
a(I30
F0.168125152588
tp729
a(I36
F0.235166549683
tp730
a(I42
F0.178958892822
tp731
a(I56
F0.281759262085
tp732
a(I70
F0.217596054077
tp733
a(I84
F0.232116699219
tp734
a(I18
F0.188526153564
tp735
a(I24
F0.160064697266
tp736
a(I30
F0.172960281372
tp737
a(I36
F0.27826499939
tp738
a(I42
F0.241680145264
tp739
a(I56
F0.181407928467
tp740
a(I70
F0.255708694458
tp741
a(I84
F0.339950561523
tp742
a(I18
F0.177097320557
tp743
a(I24
F0.228763580322
tp744
a(I30
F0.17049407959
tp745
a(I36
F0.341985702515
tp746
a(I42
F0.16898727417
tp747
a(I56
F0.176485061646
tp748
a(I70
F0.230554580688
tp749
a(I84
F0.229782104492
tp750
a(I18
F0.226144790649
tp751
a(I24
F0.219985961914
tp752
a(I30
F0.175462722778
tp753
a(I36
F0.246673583984
tp754
a(I42
F0.171094894409
tp755
a(I56
F0.214366912842
tp756
a(I70
F0.2486743927
tp757
a(I84
F0.328887939453
tp758
a(I18
F0.303308486938
tp759
a(I24
F0.18701171875
tp760
a(I30
F0.231140136719
tp761
a(I36
F0.2431640625
tp762
a(I42
F0.165452957153
tp763
a(I56
F0.185642242432
tp764
a(I70
F0.233606338501
tp765
a(I84
F0.321866989136
tp766
a(I18
F0.181901931763
tp767
a(I24
F0.160293579102
tp768
a(I30
F0.18350982666
tp769
a(I36
F0.254571914673
tp770
a(I42
F0.172960281372
tp771
a(I56
F0.199546813965
tp772
a(I70
F0.338897705078
tp773
a(I84
F0.24536895752
tp774
a(I18
F0.168214797974
tp775
a(I24
F0.167964935303
tp776
a(I30
F0.218166351318
tp777
a(I36
F0.260709762573
tp778
a(I42
F0.169462203979
tp779
a(I56
F0.280288696289
tp780
a(I70
F0.224475860596
tp781
a(I84
F0.240663528442
tp782
a(I18
F0.176483154297
tp783
a(I24
F0.194721221924
tp784
a(I30
F0.202333450317
tp785
a(I36
F0.266010284424
tp786
a(I42
F0.174617767334
tp787
a(I56
F0.18745803833
tp788
a(I70
F0.218599319458
tp789
a(I84
F0.230298995972
tp790
a(I18
F0.179533004761
tp791
a(I24
F0.160192489624
tp792
a(I30
F0.169462203979
tp793
a(I36
F0.359998703003
tp794
a(I42
F0.177520751953
tp795
a(I56
F0.222604751587
tp796
a(I70
F0.237159729004
tp797
a(I84
F0.233156204224
tp798
a(I18
F0.182304382324
tp799
a(I24
F0.451713562012
tp800
a(I30
F0.18316078186
tp801
a(I36
F0.239305496216
tp802
a(I42
F0.168825149536
tp803
a(I56
F0.197540283203
tp804
a(I70
F0.255275726318
tp805
a(I84
F0.26068687439
tp806
a(I18
F0.219202041626
tp807
a(I24
F0.16746711731
tp808
a(I30
F0.163440704346
tp809
a(I36
F0.230899810791
tp810
asS'full_solution'
p811
(lp812
(I365
F0.318572998047
tp813
a(I365
F0.310789108276
tp814
a(I365
F0.29740524292
tp815
a(I365
F0.311412811279
tp816
a(I365
F0.325380325317
tp817
a(I365
F0.318258285522
tp818
a(I365
F0.311138153076
tp819
a(I365
F0.305137634277
tp820
a(I365
F0.32391166687
tp821
a(I365
F0.315036773682
tp822
a(I365
F0.31361579895
tp823
a(I365
F0.31121635437
tp824
a(I365
F0.306449890137
tp825
a(I365
F0.31925201416
tp826
a(I365
F0.320789337158
tp827
a(I365
F0.301872253418
tp828
a(I365
F1.14564704895
tp829
a(I365
F0.325412750244
tp830
a(I365
F0.333358764648
tp831
a(I365
F0.337921142578
tp832
a(I365
F0.313652038574
tp833
a(I365
F0.333770751953
tp834
a(I365
F0.515888214111
tp835
a(I365
F0.326272964478
tp836
a(I365
F0.328842163086
tp837
a(I365
F0.344934463501
tp838
a(I365
F0.328731536865
tp839
a(I365
F0.325168609619
tp840
a(I365
F0.327627182007
tp841
a(I365
F0.344026565552
tp842
a(I365
F0.334886550903
tp843
a(I365
F0.320541381836
tp844
a(I365
F0.310716629028
tp845
a(I365
F0.366872787476
tp846
a(I365
F0.322748184204
tp847
a(I365
F0.320789337158
tp848
a(I365
F0.314451217651
tp849
a(I365
F0.306859970093
tp850
a(I365
F0.331079483032
tp851
a(I365
F0.321462631226
tp852
a(I365
F0.363986968994
tp853
a(I365
F0.326393127441
tp854
a(I365
F0.313367843628
tp855
a(I365
F0.310373306274
tp856
a(I365
F0.308574676514
tp857
a(I365
F0.346796035767
tp858
a(I365
F0.335994720459
tp859
a(I365
F0.320531845093
tp860
a(I365
F0.321775436401
tp861
a(I365
F0.364444732666
tp862
a(I365
F0.40758895874
tp863
a(I365
F0.391040802002
tp864
a(I365
F0.359457015991
tp865
a(I365
F0.373010635376
tp866
a(I365
F0.659252166748
tp867
a(I365
F0.399572372437
tp868
a(I365
F0.432147979736
tp869
a(I365
F0.346424102783
tp870
a(I365
F0.358459472656
tp871
a(I365
F0.396806716919
tp872
a(I365
F0.365188598633
tp873
a(I365
F0.330932617188
tp874
a(I365
F0.354114532471
tp875
a(I365
F0.336141586304
tp876
a(I365
F0.336315155029
tp877
a(I365
F0.337894439697
tp878
a(I365
F0.315774917603
tp879
a(I365
F0.332899093628
tp880
a(I365
F0.315618515015
tp881
a(I365
F0.322708129883
tp882
a(I365
F0.309671401978
tp883
a(I365
F0.317956924438
tp884
a(I365
F0.309818267822
tp885
a(I365
F0.30740737915
tp886
a(I365
F0.311864852905
tp887
a(I365
F0.321266174316
tp888
a(I365
F0.318410873413
tp889
a(I365
F0.314683914185
tp890
a(I365
F0.317010879517
tp891
a(I365
F0.337495803833
tp892
a(I365
F0.324880599976
tp893
a(I365
F0.354608535767
tp894
a(I365
F0.312223434448
tp895
a(I365
F0.31372833252
tp896
a(I365
F0.313627243042
tp897
a(I365
F0.318597793579
tp898
a(I365
F0.319599151611
tp899
a(I365
F0.317909240723
tp900
a(I365
F0.328426361084
tp901
a(I365
F0.317514419556
tp902
a(I365
F0.358499526978
tp903
a(I365
F0.320705413818
tp904
a(I365
F0.318956375122
tp905
a(I365
F0.329692840576
tp906
a(I365
F0.33674621582
tp907
a(I365
F0.324718475342
tp908
a(I365
F0.368001937866
tp909
a(I365
F0.328109741211
tp910
a(I365
F0.320707321167
tp911
a(I365
F0.327844619751
tp912
a(I365
F0.304140090942
tp913
asS'repr_solution_and_comm'
p914
F2.008997559612908
sS'repr_compilation'
p915
(lp916
(I42
F1.3175055831328852
tp917
a(I56
F1.4968528780667119
tp918
a(I70
F1.6656155595458815
tp919
a(I84
F1.9537493417665033
tp920
a(I18
F1.0960787517121382
tp921
a(I24
F1.3114476469155285
tp922
a(I30
F1.267737660583446
tp923
a(I36
F1.353990681893439
tp924
a(I42
F1.2472387013581852
tp925
a(I56
F1.4231919912128603
tp926
a(I70
F1.548277506866782
tp927
a(I84
F1.7723872323852277
tp928
a(I18
F1.005592979037175
tp929
a(I24
F1.51101893816179
tp930
a(I30
F1.1803530611322088
tp931
a(I36
F1.2619955305763142
tp932
a(I42
F1.2813020113865292
tp933
a(I56
F1.3886801342577542
tp934
a(I70
F1.5734635991405383
tp935
a(I84
F2.3247862655660327
tp936
a(I18
F0.9951090151368192
tp937
a(I24
F1.6458404748325108
tp938
a(I30
F1.2000650575379979
tp939
a(I36
F1.257200819199852
tp940
a(I42
F1.2551506315394931
tp941
a(I56
F1.417108163262327
tp942
a(I70
F1.601850055503121
tp943
a(I84
F1.76157068734895
tp944
a(I18
F0.9951345421976896
tp945
a(I24
F1.6603825120670024
tp946
a(I30
F1.1716027493373815
tp947
a(I36
F1.2994955123427019
tp948
a(I42
F1.2063505492694162
tp949
a(I56
F1.4096232643422013
tp950
a(I70
F1.5976924266315677
tp951
a(I84
F2.329677250429228
tp952
a(I18
F0.9842764245194076
tp953
a(I24
F1.6577484840572652
tp954
a(I30
F1.1629611098874193
tp955
a(I36
F1.2747714598707205
tp956
a(I42
F1.2259225115127208
tp957
a(I56
F1.4145871836650201
tp958
a(I70
F1.589636450892499
tp959
a(I84
F1.751407270398687
tp960
a(I18
F1.0070082722264146
tp961
a(I24
F1.696657559583798
tp962
a(I30
F1.1807965026467855
tp963
a(I36
F1.2841694296671164
tp964
a(I42
F1.2241804719443508
tp965
a(I56
F1.3989799386475283
tp966
a(I70
F1.5691064945218614
tp967
a(I84
F1.7533447743189186
tp968
a(I18
F0.9906067709434865
tp969
a(I24
F1.6411518830947784
tp970
a(I30
F1.16510611234537
tp971
a(I36
F1.2935550006053518
tp972
a(I42
F1.2377495634872275
tp973
a(I56
F1.4002194597890139
tp974
a(I70
F1.772322320716171
tp975
a(I84
F1.7494336639209678
tp976
a(I18
F1.014504475987792
tp977
a(I24
F1.7024383448545564
tp978
a(I30
F1.1722956267039422
tp979
a(I36
F1.2746208502115906
tp980
a(I42
F1.26088437408373
tp981
a(I56
F1.409107253040304
tp982
a(I70
F1.5781077008578563
tp983
a(I84
F1.75095179469821
tp984
a(I18
F0.9819968579835177
tp985
a(I24
F1.7108808732296552
tp986
a(I30
F1.176249039088475
tp987
a(I36
F1.277618091830277
tp988
a(I42
F1.2265705341865782
tp989
a(I56
F1.4221534045076396
tp990
a(I70
F1.6015502948740163
tp991
a(I84
F2.3106614134406414
tp992
a(I18
F0.9933578587609873
tp993
a(I24
F1.6725104186875228
tp994
a(I30
F1.174147432634129
tp995
a(I36
F1.2583798047398318
tp996
a(I42
F1.2247712410673444
tp997
a(I56
F1.3873436102849723
tp998
a(I70
F1.6068143394982144
tp999
a(I84
F1.7596630865571683
tp1000
a(I18
F0.9902410046283876
tp1001
a(I24
F1.6630402437761518
tp1002
a(I30
F1.16724053930659
tp1003
a(I36
F1.2861211558069385
tp1004
a(I42
F1.2400196485434094
tp1005
a(I56
F1.4239020081774356
tp1006
a(I70
F1.5752493993847452
tp1007
a(I84
F2.32436652775084
tp1008
a(I18
F1.0067785286785806
tp1009
a(I24
F1.671352219468531
tp1010
a(I30
F1.1710641283530094
tp1011
a(I36
F1.2960387836282052
tp1012
a(I42
F1.2469382113845313
tp1013
a(I56
F1.4141167564004036
tp1014
a(I70
F1.6039618727818379
tp1015
a(I84
F1.7808680513517174
tp1016
a(I18
F0.9915764345843172
tp1017
a(I24
F1.6512292373826085
tp1018
a(I30
F1.1602946260431963
tp1019
a(I36
F1.2463467129167611
tp1020
a(I42
F1.2229380334243842
tp1021
a(I56
F1.3902489544844912
tp1022
a(I70
F1.5946554357324203
tp1023
a(I84
F2.323415462397179
tp1024
a(I18
F1.0028243869494418
tp1025
a(I24
F1.64785893600299
tp1026
a(I30
F1.1734600253520284
tp1027
a(I36
F1.2629790517644324
tp1028
a(I42
F1.231757268283559
tp1029
a(I56
F1.412510010254664
tp1030
a(I70
F1.5920170316550184
tp1031
a(I84
F1.7562661640996566
tp1032
a(I18
F0.9894212213021092
tp1033
a(I24
F1.6723258945046382
tp1034
a(I30
F1.1575570311006231
tp1035
a(I36
F1.2668081108953402
tp1036
a(I42
F1.238959546172623
tp1037
a(I56
F1.5279379094358774
tp1038
a(I70
F1.586182274884095
tp1039
a(I84
F1.7508449457149027
tp1040
a(I18
F1.0326381706870507
tp1041
a(I24
F1.7028256268353061
tp1042
a(I30
F1.187029481567265
tp1043
a(I36
F1.2800767124647336
tp1044
a(I42
F1.238520116053337
tp1045
a(I56
F1.4319784055651326
tp1046
a(I70
F1.6296953381752246
tp1047
a(I84
F1.7787974420426735
tp1048
a(I18
F0.9941849355332124
tp1049
a(I24
F1.652228804151946
tp1050
a(I30
F1.1734078772133216
tp1051
a(I36
F1.27876061014058
tp1052
a(I42
F1.2256519246674316
tp1053
a(I56
F1.4177419637164803
tp1054
a(I70
F1.5701148134263576
tp1055
a(I84
F1.7807130656249228
tp1056
a(I18
F1.017289843001322
tp1057
a(I24
F1.657632518266496
tp1058
a(I30
F1.1902805351055576
tp1059
a(I36
F1.2720371469789598
tp1060
a(I42
F1.2331594332700888
tp1061
a(I56
F1.389340920462132
tp1062
a(I70
F1.573835200212443
tp1063
a(I84
F2.495323442448239
tp1064
a(I18
F5.125120888866832
tp1065
a(I24
F2.076123883555738
tp1066
a(I30
F3.3045845142637518
tp1067
a(I36
F1.371964650126074
tp1068
a(I42
F1.241834257899086
tp1069
a(I56
F1.4152527106091384
tp1070
a(I70
F1.5808463898171112
tp1071
a(I84
F1.747340444929364
tp1072
a(I18
F1.016285535492102
tp1073
a(I24
F1.6450677342326117
tp1074
a(I30
F1.1869405015264647
tp1075
a(I36
F1.4385552704628708
tp1076
a(I42
F1.3957726457850868
tp1077
a(I56
F2.387279427960493
tp1078
a(I70
F1.6618955374322013
tp1079
a(I84
F2.944188363452895
tp1080
a(I18
F1.7329121854518235
tp1081
a(I24
F1.8186874860512035
tp1082
a(I30
F1.3051599671503027
tp1083
a(I36
F1.4002974996608373
tp1084
a(I42
F1.261595849737546
tp1085
a(I56
F1.497404991926146
tp1086
a(I70
F1.8349453064487307
tp1087
a(I84
F2.0570872602462487
tp1088
a(I18
F1.0627743247363242
tp1089
a(I24
F1.8011806630324827
tp1090
a(I30
F1.1861739603557453
tp1091
a(I36
F1.7266562321766514
tp1092
a(I42
F1.271580577261716
tp1093
a(I56
F1.488015774264909
tp1094
a(I70
F1.762432407989536
tp1095
a(I84
F2.508589126638981
tp1096
a(I18
F1.0698974687368263
tp1097
a(I24
F1.9308668844003023
tp1098
a(I30
F1.3532354455637687
tp1099
a(I36
F1.4885255861377118
tp1100
a(I42
F1.3286182420752084
tp1101
a(I56
F1.4801964708474316
tp1102
a(I70
F1.739405905065496
tp1103
a(I84
F2.008108853222211
tp1104
a(I18
F1.015098891833759
tp1105
a(I24
F1.7084131357878505
tp1106
a(I30
F1.2151617613378676
tp1107
a(I36
F1.2795424675477989
tp1108
a(I42
F1.4564351532426372
tp1109
a(I56
F1.4389771963119529
tp1110
a(I70
F1.615295887809225
tp1111
a(I84
F1.7675181278598302
tp1112
a(I18
F0.9945328329056338
tp1113
a(I24
F1.685617835101084
tp1114
a(I30
F1.1835271688155444
tp1115
a(I36
F1.4229144755938705
tp1116
a(I42
F1.3514171894851188
tp1117
a(I56
F1.4160444141687094
tp1118
a(I70
F1.6940570814256262
tp1119
a(I84
F1.7347942591827632
tp1120
a(I18
F1.0088980040754905
tp1121
a(I24
F1.7205694868478076
tp1122
a(I30
F1.21592173840736
tp1123
a(I36
F1.3163831217991628
tp1124
a(I42
F1.3312187202336645
tp1125
a(I56
F1.400801112104773
tp1126
a(I70
F1.623819008762439
tp1127
a(I84
F1.9695254300579563
tp1128
a(I18
F1.0206309705972672
tp1129
a(I24
F1.9959109295205053
tp1130
a(I30
F1.2073920533530327
tp1131
a(I36
F1.3066842973566963
tp1132
a(I42
F1.2543399650207903
tp1133
a(I56
F1.454529011140039
tp1134
a(I70
F1.5898720291970676
tp1135
a(I84
F2.365568298015887
tp1136
a(I18
F1.1067093138763084
tp1137
a(I24
F1.7240820104236718
tp1138
a(I30
F1.2435482177006634
tp1139
a(I36
F1.2957583506308765
tp1140
a(I42
F1.5672951672167983
tp1141
a(I56
F1.4601362123967192
tp1142
a(I70
F1.6872650598718337
tp1143
a(I84
F1.8669806738269017
tp1144
a(I18
F1.0616190428956997
tp1145
a(I24
F1.7415822693412792
tp1146
a(I30
F1.5141872110884833
tp1147
a(I36
F1.5384627166336031
tp1148
a(I42
F1.395794526122927
tp1149
a(I56
F1.4322081491129666
tp1150
a(I70
F1.6883791337427283
tp1151
a(I84
F2.578312282017123
tp1152
a(I18
F1.0397036964641302
tp1153
a(I24
F1.8904896382014158
tp1154
a(I30
F1.2824645866730862
tp1155
a(I36
F1.2790906385703238
tp1156
a(I42
F1.2608092515904445
tp1157
a(I56
F1.4316283201587794
tp1158
a(I70
F1.6117344981453243
tp1159
a(I84
F1.785565030552334
tp1160
a(I18
F1.0000587122399338
tp1161
a(I24
F1.739373449230925
tp1162
a(I30
F1.1959077933388471
tp1163
a(I36
F1.294615102976195
tp1164
a(I42
F1.2419553291019838
tp1165
a(I56
F1.4532927720492808
tp1166
a(I70
F1.623828125569844
tp1167
a(I84
F2.4297535398741275
tp1168
a(I18
F1.0301507409412807
tp1169
a(I24
F1.7278990353688641
tp1170
a(I30
F1.2036399400769824
tp1171
a(I36
F1.3103638408451843
tp1172
a(I42
F1.4811201857785363
tp1173
a(I56
F1.4383867918611486
tp1174
a(I70
F1.6861714076494536
tp1175
a(I84
F1.825922949119331
tp1176
a(I18
F1.028553840947552
tp1177
a(I24
F1.765584635335017
tp1178
a(I30
F1.2551506315394363
tp1179
a(I36
F1.3446627291784807
tp1180
a(I42
F1.3028530501919704
tp1181
a(I56
F1.458805887853032
tp1182
a(I70
F1.752390791587004
tp1183
a(I84
F1.9576250789516507
tp1184
a(I18
F1.3835276793568028
tp1185
a(I24
F1.7838404952542533
tp1186
a(I30
F1.263946527371445
tp1187
a(I36
F1.7168589462137334
tp1188
a(I42
F1.3245116673256234
tp1189
a(I56
F1.4362684104810342
tp1190
a(I70
F1.654892735290332
tp1191
a(I84
F2.006900329226255
tp1192
a(I18
F1.225212859220619
tp1193
a(I24
F1.884263223382277
tp1194
a(I30
F1.339597430956701
tp1195
a(I36
F1.2813016467143825
tp1196
a(I42
F1.2543465291219036
tp1197
a(I56
F1.4493878610801403
tp1198
a(I70
F1.6245177208857058
tp1199
a(I84
F1.7515363643922228
tp1200
a(I18
F1.027166992197408
tp1201
a(I24
F1.7375187259224276
tp1202
a(I30
F1.212749089413137
tp1203
a(I36
F1.3200108818214176
tp1204
a(I42
F1.289530112450393
tp1205
a(I56
F1.4243494610873313
tp1206
a(I70
F1.6165740642145465
tp1207
a(I84
F2.3729102453951327
tp1208
a(I18
F1.082507107463016
tp1209
a(I24
F1.7484202396042292
tp1210
a(I30
F1.418357895228155
tp1211
a(I36
F1.307553676115731
tp1212
a(I42
F1.2627493082165984
tp1213
a(I56
F1.4638445649968617
tp1214
a(I70
F1.6270011392361994
tp1215
a(I84
F1.7566961127390641
tp1216
a(I18
F1.0065943691679422
tp1217
a(I24
F1.718838752120746
tp1218
a(I30
F1.1861692196157492
tp1219
a(I36
F1.2646871768092751
tp1220
a(I42
F1.2439540979685262
tp1221
a(I56
F1.4587508223360146
tp1222
a(I70
F1.7637032909485697
tp1223
a(I84
F2.5583588725498885
tp1224
a(I18
F1.0928612480254287
tp1225
a(I24
F1.8706780862580672
tp1226
a(I30
F1.2196224328893095
tp1227
a(I36
F1.3828435541254294
tp1228
a(I42
F1.3936072216783941
tp1229
a(I56
F1.4496701174391546
tp1230
a(I70
F1.7502060398483081
tp1231
a(I84
F2.577752510039545
tp1232
a(I18
F1.0855831182980182
tp1233
a(I24
F1.7232717085773857
tp1234
a(I30
F1.1973938329540488
tp1235
a(I36
F1.3482036971936395
tp1236
a(I42
F1.2492794075387792
tp1237
a(I56
F1.4157348073872527
tp1238
a(I70
F1.6252157036644803
tp1239
a(I84
F2.3871335590411036
tp1240
a(I18
F1.0187270165283735
tp1241
a(I24
F1.6866079203905429
tp1242
a(I30
F1.184711259767937
tp1243
a(I36
F1.277436849698006
tp1244
a(I42
F1.4281613806201676
tp1245
a(I56
F1.418590920826773
tp1246
a(I70
F1.5959996178235087
tp1247
a(I84
F1.7637962823848738
tp1248
a(I18
F1.013939233925612
tp1249
a(I24
F1.7118618417116522
tp1250
a(I30
F1.210230662522008
tp1251
a(I36
F1.3037793178293668
tp1252
a(I42
F1.2773256246471192
tp1253
a(I56
F1.4327952715132142
tp1254
a(I70
F1.6235152367380579
tp1255
a(I84
F1.7937781800517314
tp1256
a(I18
F1.0097870751385472
tp1257
a(I24
F1.7199444385285005
tp1258
a(I30
F1.1974904711128147
tp1259
a(I36
F1.2963903277236568
tp1260
a(I42
F1.2458401830947423
tp1261
a(I56
F1.4085992645289025
tp1262
a(I70
F1.607808436183177
tp1263
a(I84
F1.7778259550402709
tp1264
a(I18
F1.0062067225148894
tp1265
a(I24
F1.715769305386857
tp1266
a(I30
F1.2096847480918314
tp1267
a(I36
F1.2966240826667672
tp1268
a(I42
F1.2424111694749627
tp1269
a(I56
F1.4649648382969644
tp1270
a(I70
F1.6292136060692428
tp1271
a(I84
F1.7974759571552568
tp1272
a(I18
F1.0050674862554843
tp1273
a(I24
F1.6973052175853809
tp1274
a(I30
F1.1755681959075446
tp1275
a(I36
F1.2631931144032933
tp1276
a(I42
F1.2832592076106266
tp1277
a(I56
F1.4775434798780225
tp1278
a(I70
F1.6934484433600119
tp1279
a(I84
F2.4498068695506845
tp1280
a(I18
F1.0041831559324237
tp1281
a(I24
F1.7861787740303043
tp1282
a(I30
F1.632193708090199
tp1283
a(I36
F1.2918548983511755
tp1284
a(I42
F1.2839210878319136
tp1285
a(I56
F1.5631262335041356
tp1286
a(I70
F1.729285519446421
tp1287
a(I84
F1.8940980705920083
tp1288
a(I18
F1.1143831130470971
tp1289
a(I24
F1.9144208930970308
tp1290
a(I30
F1.4874844467267394
tp1291
a(I36
F1.440644113386952
tp1292
a(I42
F1.4920085712574291
tp1293
a(I56
F1.5859142407452964
tp1294
a(I70
F1.6760386231726443
tp1295
a(I84
F2.5107180835157124
tp1296
a(I18
F1.3849415138570293
tp1297
a(I24
F1.7613533426592767
tp1298
a(I30
F1.2488691512035075
tp1299
a(I36
F1.2810080855142587
tp1300
a(I42
F1.2749880752157878
tp1301
a(I56
F1.4460824713696638
tp1302
a(I70
F2.244999613447362
tp1303
a(I84
F1.8691767304062523
tp1304
a(I18
F1.0260379667624875
tp1305
a(I24
F1.713790593496924
tp1306
a(I30
F1.1978372744683838
tp1307
a(I36
F1.3051417335354927
tp1308
a(I42
F1.265668874635594
tp1309
a(I56
F1.4197356271706667
tp1310
a(I70
F1.6250107578325697
tp1311
a(I84
F2.3964611470837553
tp1312
a(I18
F1.0901736131877442
tp1313
a(I24
F2.3457217375321306
tp1314
a(I30
F1.397177363478022
tp1315
a(I36
F1.5265682002841459
tp1316
a(I42
F1.3384403257546182
tp1317
a(I56
F1.7767359495410346
tp1318
a(I70
F1.8710726616845932
tp1319
a(I84
F1.989024093169519
tp1320
a(I18
F1.1737087318592785
tp1321
a(I24
F2.193122790997677
tp1322
a(I30
F1.53832924657263
tp1323
a(I36
F1.7206037660434959
tp1324
a(I42
F1.6542986841163838
tp1325
a(I56
F1.9388561251089413
tp1326
a(I70
F2.0154934672605123
tp1327
a(I84
F2.473099218580046
tp1328
a(I18
F1.3278662877964962
tp1329
a(I24
F2.0677790873569393
tp1330
a(I30
F1.4811249265185324
tp1331
a(I36
F1.5949369627469423
tp1332
a(I42
F1.6108293815009347
tp1333
a(I56
F1.8206238959546681
tp1334
a(I70
F2.0539594659448994
tp1335
a(I84
F2.3884762824427526
tp1336
a(I18
F1.427200833787083
tp1337
a(I24
F2.0476976779127654
tp1338
a(I30
F1.4758947964178333
tp1339
a(I36
F1.5668681359557013
tp1340
a(I42
F1.5138732282393903
tp1341
a(I56
F1.8197337308747592
tp1342
a(I70
F2.0056232468377857
tp1343
a(I84
F2.1704602310269365
tp1344
a(I18
F1.2584283061551105
tp1345
a(I24
F2.0492012217982847
tp1346
a(I30
F1.5062267794914987
tp1347
a(I36
F1.5751669834453423
tp1348
a(I42
F1.5189600421267642
tp1349
a(I56
F1.9041108778828857
tp1350
a(I70
F1.9325006162962381
tp1351
a(I84
F3.011956875312535
tp1352
a(I18
F1.2322047211937388
tp1353
a(I24
F2.0127288865683113
tp1354
a(I30
F1.4711773955687022
tp1355
a(I36
F1.7302672172731945
tp1356
a(I42
F1.5254909583150038
tp1357
a(I56
F1.8440358574980564
tp1358
a(I70
F1.9384976522401303
tp1359
a(I84
F2.1452365775066937
tp1360
a(I18
F1.3234147330526866
tp1361
a(I24
F2.133948146516559
tp1362
a(I30
F1.5537833292246432
tp1363
a(I36
F1.6295006031677985
tp1364
a(I42
F1.6036161634428936
tp1365
a(I56
F1.7928303967491956
tp1366
a(I70
F1.9753189788593772
tp1367
a(I84
F2.842518456065136
tp1368
a(I18
F1.2387246972125467
tp1369
a(I24
F2.08458172816745
tp1370
a(I30
F1.4235103501291633
tp1371
a(I36
F1.6070302254988746
tp1372
a(I42
F2.394345683082065
tp1373
a(I56
F1.8472839936575838
tp1374
a(I70
F2.029150444827337
tp1375
a(I84
F2.1560498404924147
tp1376
a(I18
F1.262488202851273
tp1377
a(I24
F2.0539886397286864
tp1378
a(I30
F1.5040693781752452
tp1379
a(I36
F1.589201032168603
tp1380
a(I42
F1.5718134569915492
tp1381
a(I56
F1.7754242232845172
tp1382
a(I70
F2.0543387251350396
tp1383
a(I84
F3.3887727610217553
tp1384
a(I18
F1.3274815585218676
tp1385
a(I24
F2.4151815995110155
tp1386
a(I30
F2.0076931268026783
tp1387
a(I36
F1.642727996767917
tp1388
a(I42
F1.5317972363677654
tp1389
a(I56
F1.741639522892001
tp1390
a(I70
F2.057069026631325
tp1391
a(I84
F2.215114718611858
tp1392
a(I18
F1.3424943876934776
tp1393
a(I24
F2.006081275244469
tp1394
a(I30
F1.3797584264825673
tp1395
a(I36
F1.5236420697633548
tp1396
a(I42
F1.3737416982348805
tp1397
a(I56
F1.4830463848575164
tp1398
a(I70
F1.6266991905736177
tp1399
a(I84
F1.9099000506162156
tp1400
a(I18
F1.0561000923353276
tp1401
a(I24
F1.7907473885816216
tp1402
a(I30
F1.2836457602470546
tp1403
a(I36
F1.4574037228667294
tp1404
a(I42
F1.316554517779423
tp1405
a(I56
F1.4833596383618897
tp1406
a(I70
F1.7118760639314132
tp1407
a(I84
F1.8598673759784106
tp1408
a(I18
F1.0150678946884
tp1409
a(I24
F1.9509960659152057
tp1410
a(I30
F1.297981028288632
tp1411
a(I36
F1.3782723868680478
tp1412
a(I42
F1.2813636410051004
tp1413
a(I56
F1.4941648785570578
tp1414
a(I70
F1.621303863922094
tp1415
a(I84
F1.7987840366886303
tp1416
a(I18
F1.035666774123456
tp1417
a(I24
F1.8360331239141487
tp1418
a(I30
F1.2727963947036187
tp1419
a(I36
F1.3184234633072265
tp1420
a(I42
F1.2879944774026626
tp1421
a(I56
F1.4889103154123404
tp1422
a(I70
F1.68913254671088
tp1423
a(I84
F2.4478773884211478
tp1424
a(I18
F1.0307148889864948
tp1425
a(I24
F1.7520483642988438
tp1426
a(I30
F1.2642524874295304
tp1427
a(I36
F1.3947778197557454
tp1428
a(I42
F1.3099459263917197
tp1429
a(I56
F1.4891597512641965
tp1430
a(I70
F1.6288850363289384
tp1431
a(I84
F1.9130584773911323
tp1432
a(I18
F1.056442884295393
tp1433
a(I24
F2.26237187238803
tp1434
a(I30
F1.2709281785205349
tp1435
a(I36
F1.3647248109905377
tp1436
a(I42
F1.3215297419433227
tp1437
a(I56
F1.4875526404462107
tp1438
a(I70
F1.6205825421161535
tp1439
a(I84
F2.442659292506505
tp1440
a(I18
F1.0553973688161022
tp1441
a(I24
F1.7477510659373365
tp1442
a(I30
F1.2406293806257054
tp1443
a(I36
F1.9879636261262021
tp1444
a(I42
F1.3687522518516744
tp1445
a(I56
F1.4916475456825538
tp1446
a(I70
F1.6716169715568867
tp1447
a(I84
F1.8499136455998269
tp1448
a(I18
F1.126278723413634
tp1449
a(I24
F1.8592226353553087
tp1450
a(I30
F1.2860051900161125
tp1451
a(I36
F1.4941929583237652
tp1452
a(I42
F1.265559108274374
tp1453
a(I56
F1.451320624260461
tp1454
a(I70
F2.0728112003989736
tp1455
a(I84
F2.607147649979197
tp1456
a(I18
F1.1987814110484578
tp1457
a(I24
F1.976929371728147
tp1458
a(I30
F1.2247803578748062
tp1459
a(I36
F1.3021587141365671
tp1460
a(I42
F1.3477883354462392
tp1461
a(I56
F1.4574434721471334
tp1462
a(I70
F1.7173629233298016
tp1463
a(I84
F1.8181302667794625
tp1464
a(I18
F1.2252383862814895
tp1465
a(I24
F1.8480166203048611
tp1466
a(I30
F1.270254993457911
tp1467
a(I36
F1.350397565739513
tp1468
a(I42
F1.2750978415779173
tp1469
a(I56
F1.4503239748696615
tp1470
a(I70
F1.610820264693757
tp1471
a(I84
F1.8305787203503314
tp1472
a(I18
F1.0177223443470211
tp1473
a(I24
F1.7495284787182754
tp1474
a(I30
F1.2400568451175786
tp1475
a(I36
F1.3161573896468326
tp1476
a(I42
F1.2671246464501564
tp1477
a(I56
F1.4291635000954557
tp1478
a(I70
F1.5863018873978945
tp1479
a(I84
F1.7807243704660323
tp1480
a(I18
F1.0231235057553931
tp1481
a(I24
F1.7227381930047159
tp1482
a(I30
F1.242576730698147
tp1483
a(I36
F1.2935550006054655
tp1484
a(I42
F1.3394862059058141
tp1485
a(I56
F1.5369569847143794
tp1486
a(I70
F1.7723292494897578
tp1487
a(I84
F2.191603930875317
tp1488
a(I18
F1.2067790392197821
tp1489
a(I24
F2.178669369131512
tp1490
a(I30
F1.2470647526720313
tp1491
a(I36
F1.3416870032251609
tp1492
a(I42
F1.2906536678010525
tp1493
a(I56
F1.4081441535008707
tp1494
a(I70
F1.7680355978509397
tp1495
a(I84
F2.3465903869464455
tp1496
a(I18
F1.0282041202135588
tp1497
a(I24
F1.705321808716235
tp1498
a(I30
F1.202050698201674
tp1499
a(I36
F1.2977862932812059
tp1500
a(I42
F1.6687564820504122
tp1501
a(I56
F2.005087178559279
tp1502
a(I70
F1.863138851165786
tp1503
a(I84
F1.8680170724983327
tp1504
a(I18
F1.2620670063465695
tp1505
a(I24
F2.0290454192054312
tp1506
a(I30
F1.4704407575263758
tp1507
a(I36
F1.4955838184691856
tp1508
a(I42
F1.2557319191828356
tp1509
a(I56
F1.4611718817236579
tp1510
a(I70
F1.6618798565232282
tp1511
a(I84
F2.5163201793607186
tp1512
a(I18
F1.2899553203501455
tp1513
a(I24
F2.0998275829374506
tp1514
a(I30
F1.3961712326067754
tp1515
a(I36
F1.391701444248156
tp1516
a(I42
F1.245046656174054
tp1517
a(I56
F1.4088946490905983
tp1518
a(I70
F1.7618026189302327
tp1519
a(I84
F1.7887179872423076
tp1520
a(I18
F1.1080323449741627
tp1521
a(I24
F1.9904371983247984
tp1522
a(I30
F1.406352518499716
tp1523
a(I36
F1.4501190290379782
tp1524
a(I42
F1.4138286652851093
tp1525
a(I56
F1.437591441578661
tp1526
a(I70
F1.6170991923240763
tp1527
a(I84
F2.371413265610954
tp1528
a(I18
F1.0125100831892269
tp1529
a(I24
F1.7118749699147884
tp1530
a(I30
F1.213634878425637
tp1531
a(I36
F1.292298339865738
tp1532
a(I42
F1.251479110841501
tp1533
a(I56
F1.6825206732728475
tp1534
a(I70
F1.6029655880633982
tp1535
a(I84
F1.7573153263015229
tp1536
a(I18
F1.020439882312985
tp1537
a(I24
F1.761638881068393
tp1538
a(I30
F1.6219238068288178
tp1539
a(I36
F1.3619000593685087
tp1540
a(I42
F1.2528750763990502
tp1541
a(I56
F1.4339042399719801
tp1542
a(I70
F1.6151066228862874
tp1543
a(I84
F1.789923958532654
tp1544
a(I18
F1.0068361469016054
tp1545
a(I24
F2.010679428251933
tp1546
a(I30
F1.2118166223467597
tp1547
a(I36
F1.2845133156442898
tp1548
a(I42
F1.2426678987726518
tp1549
a(I56
F1.70830592213224
tp1550
a(I70
F1.619069516750642
tp1551
a(I84
F1.8773515893149124
tp1552
a(I18
F1.148845374569646
tp1553
a(I24
F2.0731704026125044
tp1554
a(I30
F1.271474822295204
tp1555
a(I36
F1.9369605585029603
tp1556
a(I42
F1.4391992817413666
tp1557
a(I56
F1.4342940746582826
tp1558
a(I70
F1.6620308308547465
tp1559
a(I84
F1.792402271471019
tp1560
a(I18
F1.0328817717822858
tp1561
a(I24
F1.734049598349884
tp1562
a(I30
F1.1973464255552244
tp1563
a(I36
F1.279752154119251
tp1564
a(I42
F1.2532401133689746
tp1565
a(I56
F1.4185672171270198
tp1566
a(I70
F1.6151562183190435
tp1567
a(I84
F2.350749839179116
tp1568
a(I18
F1.0112085677569667
tp1569
a(I24
F1.7153583197064108
tp1570
a(I30
F1.1980338328371545
tp1571
a(I36
F1.2715375459301868
tp1572
a(I42
F1.246231476470257
tp1573
a(I56
F1.4293520356736735
tp1574
a(I70
F1.605878955053413
tp1575
a(I84
F1.8020361842441162
tp1576
a(I18
F1.000246153801072
tp1577
a(I24
F1.6981567274019653
tp1578
a(I30
F1.1899603528277112
tp1579
a(I36
F1.3792894579073618
tp1580
a(I42
F1.252807247351484
tp1581
a(I56
F1.4130387850868829
tp1582
a(I70
F1.6228577325841798
tp1583
a(I84
F2.344489509836876
tp1584
a(I18
F1.012433866678748
tp1585
a(I24
F1.6989163397988705
tp1586
a(I30
F1.1758037742124543
tp1587
a(I36
F1.2787011685559264
tp1588
a(I42
F1.2572449445478924
tp1589
a(I56
F1.4410620278404167
tp1590
a(I70
F1.6287274978958521
tp1591
a(I84
F1.8074679781252598
tp1592
a(I18
F1.0542676140366893
tp1593
a(I24
F1.7214508997922167
tp1594
a(I30
F1.194862642532371
tp1595
a(I36
F1.290145314617348
tp1596
a(I42
F1.2645679289676082
tp1597
a(I56
F1.4281788848907127
tp1598
a(I70
F1.6114923557393013
tp1599
a(I84
F2.37980364584746
tp1600
a(I18
F1.0087608872918281
tp1601
a(I24
F1.7228884379919691
tp1602
a(I30
F1.213632325719118
tp1603
a(I36
F1.273825499929444
tp1604
a(I42
F1.227327593877817
tp1605
a(I56
F1.4474992232480872
tp1606
a(I70
F1.5999012467418652
tp1607
a(I84
F1.7686657515823754
tp1608
a(I18
F1.0200380134401712
tp1609
a(I24
F1.7207605751318624
tp1610
a(I30
F1.2233898624017456
tp1611
a(I36
F1.2919920151352926
tp1612
a(I42
F1.252766404054455
tp1613
a(I56
F1.4145346708537545
tp1614
a(I70
F1.6034983742911209
tp1615
a(I84
F1.8556791146338583
tp1616
a(I18
F1.0145755870862558
tp1617
a(I24
F1.7003527839815433
tp1618
a(I30
F1.1976604084038627
tp1619
a(I36
F1.2899418274746495
tp1620
a(I42
F1.2411709189891553
tp1621
a(I56
F1.4103712072255803
tp1622
a(I70
F1.591657464769014
tp1623
a(I84
F1.7697524750301454
tp1624
a(I18
F1.0161947320902982
tp1625
a(I24
F1.726715309089741
tp1626
a(I30
F1.1950606595901263
tp1627
a(I36
F1.280649977316898
tp1628
a(I42
F1.5472225099083516
tp1629
a(I56
F1.5389903974491972
tp1630
a(I70
F1.6140177114039034
tp1631
a(I84
F1.853086294593595
tp1632
a(I18
F1.1211576303303445
tp1633
a(I24
F1.7144863882422214
tp1634
a(I30
F1.201027427732697
tp1635
a(I36
F1.3000031361816582
tp1636
a(I42
F1.2501801481148505
tp1637
a(I56
F1.4167970977914592
tp1638
a(I70
F1.6769907825428163
tp1639
a(I84
F2.3784937429527417
tp1640
a(I18
F0.9916103491077592
tp1641
a(I24
F1.7199480852523266
tp1642
a(I30
F1.1750638541197986
tp1643
a(I36
F1.3005505093015017
tp1644
a(I42
F1.478644790218823
tp1645
a(I56
F1.5300355044955722
tp1646
a(I70
F1.6649008018412133
tp1647
a(I84
F1.7663770682393078
tp1648
a(I18
F1.0159387321364193
tp1649
a(I24
F1.7064231190561259
tp1650
a(I30
F1.1974117018962716
tp1651
a(I36
F1.359021700919584
tp1652
a(I42
F1.862265461010793
tp1653
a(I56
F1.7324742140217495
tp1654
a(I70
F1.737965449487092
tp1655
a(I84
F2.478441303076579
tp1656
a(I18
F1.0331964839760985
tp1657
a(I24
F1.8104659490891208
tp1658
a(I30
F1.2440456307158456
tp1659
a(I36
F1.6157597509727566
tp1660
a(I42
F1.252054199056147
tp1661
a(I56
F1.4216636496112187
tp1662
a(I70
F1.595282672084977
tp1663
a(I84
F1.7984784413029047
tp1664
a(I18
F1.054211454502365
tp1665
a(I24
F2.0007483075551136
tp1666
a(I30
F1.2594063572596497
tp1667
a(I36
F1.4118382838814796
tp1668
a(I42
F1.3234202031371751
tp1669
a(I56
F1.4981919547462894
tp1670
a(I70
F1.6701783393409642
tp1671
a(I84
F3.0918481883809363
tp1672
a(I18
F1.2096665144763392
tp1673
a(I24
F1.9464252633297292
tp1674
a(I30
F1.2592039641340307
tp1675
a(I36
F1.3946819109414719
tp1676
a(I42
F1.3282050683610578
tp1677
a(I56
F1.4353877268813449
tp1678
a(I70
F1.6985688070981269
tp1679
a(I84
F1.8867028810573174
tp1680
a(I18
F1.163982556994597
tp1681
a(I24
F1.7678496149792409
tp1682
a(I30
F1.187515589740542
tp1683
a(I36
F1.2787051799514302
tp1684
a(I42
F1.2451990891950118
tp1685
a(I56
F1.4525134673485809
tp1686
a(I70
F1.9402017658894692
tp1687
a(I84
F1.7972586124660666
tp1688
a(I18
F1.0294327011852147
tp1689
a(I24
F2.0666639194687377
tp1690
a(I30
F1.190330495210219
tp1691
a(I36
F1.5513651872151968
tp1692
a(I42
F1.2718187082718941
tp1693
a(I56
F1.58866933995796
tp1694
a(I70
F1.6286895719767926
tp1695
a(I84
F1.895336862388831
tp1696
a(I18
F1.044944766734261
tp1697
a(I24
F1.9008481548316922
tp1698
a(I30
F1.2356574385130443
tp1699
a(I36
F1.3209488189722833
tp1700
a(I42
F1.2245010188944434
tp1701
a(I56
F1.4059028775564002
tp1702
a(I70
F1.5684409675777715
tp1703
a(I84
F1.7592849213833688
tp1704
a(I18
F1.0129921799671138
tp1705
a(I24
F1.6760729023681051
tp1706
a(I30
F1.1780439561398452
tp1707
a(I36
F1.314766894173772
tp1708
a(I42
F1.2971269657655284
tp1709
a(I56
F1.5665184152221627
tp1710
a(I70
F1.6826034538835302
tp1711
a(I84
F2.44870008912676
tp1712
a(I18
F1.0267829922677265
tp1713
a(I24
F1.8184668593112292
tp1714
a(I30
F1.4479109382727984
tp1715
a(I36
F1.2747907875018427
tp1716
a(I42
F1.2699588795521777
tp1717
a(I56
F1.4497313823849254
tp1718
a(I70
F1.6448299678941112
tp1719
a(I84
F2.1644373033504962
tp1720
a(I18
F1.0665450363003401
tp1721
a(I24
F1.7314042654988953
tp1722
a(I30
F1.1955084771725524
tp1723
a(I36
F1.2785567583259763
tp1724
asS'full_solution_and_comm'
p1725
F7.626213082399772
sS'full_compilation'
p1726
(lp1727
(I365
F4.964894821215761
tp1728
a(I365
F5.2658479287342885
tp1729
a(I365
F5.684838165727513
tp1730
a(I365
F5.721875743019808
tp1731
a(I365
F5.7456735278544215
tp1732
a(I365
F5.719983093792251
tp1733
a(I365
F5.697446345764774
tp1734
a(I365
F5.759432978337031
tp1735
a(I365
F5.721581087802917
tp1736
a(I365
F5.730835376713799
tp1737
a(I365
F5.644855859627398
tp1738
a(I365
F5.644297546338919
tp1739
a(I365
F5.674733096344994
tp1740
a(I365
F5.69137455200007
tp1741
a(I365
F5.645880588785303
tp1742
a(I365
F5.6491823317730905
tp1743
a(I365
F6.751621697710107
tp1744
a(I365
F5.618106417211379
tp1745
a(I365
F5.6617084605431955
tp1746
a(I365
F6.430261893057718
tp1747
a(I365
F5.894940828272979
tp1748
a(I365
F6.483130624158548
tp1749
a(I365
F6.42118994029579
tp1750
a(I365
F5.725488551478065
tp1751
a(I365
F6.0950945011793465
tp1752
a(I365
F5.924890634777739
tp1753
a(I365
F5.83430275385922
tp1754
a(I365
F6.045542464630444
tp1755
a(I365
F6.530885555622035
tp1756
a(I365
F5.7690792899686585
tp1757
a(I365
F5.862749381151161
tp1758
a(I365
F5.839200667496243
tp1759
a(I365
F8.510440203224562
tp1760
a(I365
F5.774172303284786
tp1761
a(I365
F6.431369038155026
tp1762
a(I365
F5.884223838774005
tp1763
a(I365
F5.837856120732795
tp1764
a(I365
F5.849782728244691
tp1765
a(I365
F6.402042821279792
tp1766
a(I365
F5.885280659094178
tp1767
a(I365
F5.802704993238876
tp1768
a(I365
F5.811450199621731
tp1769
a(I365
F5.780753544250047
tp1770
a(I365
F5.806249972649539
tp1771
a(I365
F5.928558508752758
tp1772
a(I365
F5.997759453399794
tp1773
a(I365
F6.3707637842480835
tp1774
a(I365
F5.819780773601451
tp1775
a(I365
F6.577677752218278
tp1776
a(I365
F6.814672808720388
tp1777
a(I365
F7.25018197147665
tp1778
a(I365
F7.056138018253932
tp1779
a(I365
F7.157853145006811
tp1780
a(I365
F7.056197095166226
tp1781
a(I365
F7.461700656555877
tp1782
a(I365
F7.16011994801238
tp1783
a(I365
F7.150690981070511
tp1784
a(I365
F7.057195567918825
tp1785
a(I365
F8.087754377161673
tp1786
a(I365
F7.278868553140455
tp1787
a(I365
F6.058228684539699
tp1788
a(I365
F6.051164252779017
tp1789
a(I365
F5.994896046514896
tp1790
a(I365
F5.918636140191666
tp1791
a(I365
F6.3963437226043425
tp1792
a(I365
F9.408570820089608
tp1793
a(I365
F5.886897980736194
tp1794
a(I365
F5.895108942202569
tp1795
a(I365
F5.935025242616575
tp1796
a(I365
F5.8345146284646034
tp1797
a(I365
F5.754573355291541
tp1798
a(I365
F6.111202805934681
tp1799
a(I365
F5.804928400240897
tp1800
a(I365
F7.388553592970311
tp1801
a(I365
F6.977939513993988
tp1802
a(I365
F5.9898143380396505
tp1803
a(I365
F6.108478339194789
tp1804
a(I365
F5.778814216968385
tp1805
a(I365
F5.754727611673388
tp1806
a(I365
F7.11882299827721
tp1807
a(I365
F5.770318081765254
tp1808
a(I365
F5.84147221124158
tp1809
a(I365
F5.806913311560038
tp1810
a(I365
F5.75810228912087
tp1811
a(I365
F5.763093558865876
tp1812
a(I365
F5.815740204538088
tp1813
a(I365
F5.810723043058715
tp1814
a(I365
F5.737599683172448
tp1815
a(I365
F5.760536476711422
tp1816
a(I365
F5.86222133566298
tp1817
a(I365
F5.773644257797059
tp1818
a(I365
F5.840759641570912
tp1819
a(I365
F6.139117376344075
tp1820
a(I365
F6.401033408358671
tp1821
a(I365
F6.138629080135615
tp1822
a(I365
F5.770707916452011
tp1823
a(I365
F6.336754810392449
tp1824
a(I365
F5.719288757736649
tp1825
a(I365
F6.417628550631889
tp1826
a(I365
F5.7124620923141265
tp1827
a(I365
F5.661231833849342
tp1828
as.